; Function Attrs: mustprogress uwtable
define hidden void @_ZN2qe6mbprojclEbR10ref_vectorI3app11ast_managerER5modelRS1_I4exprS3_EP6vectorIN3mbp3defELb1EjE(ptr noundef nonnull readonly align 8 captures(none) dereferenceable(8) %0, i1 noundef zeroext %1, ptr noundef nonnull align 8 dereferenceable(16) %2, ptr noundef nonnull align 8 dereferenceable(160) %3, ptr noundef nonnull align 8 dereferenceable(16) %4, ptr noundef %5) local_unnamed_addr #4 align 2 personality ptr @__gxx_personality_v0 {
  %7 = load ptr, ptr %4, align 8, !tbaa !134
  %8 = getelementptr inbounds nuw i8, ptr %7, i64 712
  %9 = load i32, ptr %8, align 8, !tbaa !206
  store i32 0, ptr %8, align 8, !tbaa !206
  %10 = load ptr, ptr %0, align 8, !tbaa !207
  invoke void @_ZN2qe6mbproj4implclEbR10ref_vectorI3app11ast_managerER5modelRS2_I4exprS4_EP6vectorIN3mbp3defELb1EjE(ptr noundef nonnull align 8 dereferenceable(43) %10, i1 noundef zeroext %1, ptr noundef nonnull align 8 dereferenceable(16) %2, ptr noundef nonnull align 8 dereferenceable(160) %3, ptr noundef nonnull align 8 dereferenceable(16) %4, ptr noundef %5)
          to label %11 unwind label %12

11:                                               ; preds = %6
  store i32 %9, ptr %8, align 8, !tbaa !206
  ret void

12:                                               ; preds = %6
  %13 = landingpad { ptr, i32 }
          cleanup
  store i32 %9, ptr %8, align 8, !tbaa !206
  resume { ptr, i32 } %13
}